; Function Attrs: nounwind sspstrong uwtable
define internal void @check_for_cvar_table(i64 noundef %0, i64 noundef %1) #0 {
  %3 = icmp eq i64 %0, 0
  %4 = and i64 %0, 7
  %5 = icmp ne i64 %4, 0
  %6 = or i1 %3, %5
  br i1 %6, label %rbimpl_RB_TYPE_P_fastpath.exit.thread, label %rbimpl_RB_TYPE_P_fastpath.exit

rbimpl_RB_TYPE_P_fastpath.exit:                   ; preds = %2
  %7 = inttoptr i64 %0 to ptr
  %8 = load i64, ptr %7, align 8, !tbaa !28
  %9 = and i64 %8, 31
  %10 = icmp eq i64 %9, 28
  br i1 %10, label %16, label %rbimpl_RB_TYPE_P_fastpath.exit.thread

rbimpl_RB_TYPE_P_fastpath.exit.thread:            ; preds = %2, %rbimpl_RB_TYPE_P_fastpath.exit
  %11 = tail call i64 @rb_ivar_defined(i64 noundef %0, i64 noundef %1)
  %12 = and i64 %11, 27
  %.not = icmp eq i64 %12, 0
  br i1 %.not, label %16, label %13

13:                                               ; preds = %rbimpl_RB_TYPE_P_fastpath.exit.thread
  %14 = load i64, ptr @ruby_vm_global_cvar_state, align 8, !tbaa !212
  %15 = add i64 %14, 1
  store i64 %15, ptr @ruby_vm_global_cvar_state, align 8, !tbaa !212
  br label %17

16:                                               ; preds = %rbimpl_RB_TYPE_P_fastpath.exit.thread, %rbimpl_RB_TYPE_P_fastpath.exit
  tail call void @rb_class_foreach_subclass(i64 noundef %0, ptr noundef nonnull @check_for_cvar_table, i64 noundef %1) #27
  br label %17

17:                                               ; preds = %16, %13
  ret void
}